; ModuleID = 'source-C-CXX/11/1255.cpp'
source_filename = "source-C-CXX/11/1255.cpp"
target datalayout = "e-m:e-p270:32:32-p271:32:32-p272:64:64-i64:64-f80:128-n8:16:32:64-S128"
target triple = "x86_64-pc-linux-gnu"

%"class.std::ios_base::Init" = type { i8 }
%"class.std::basic_istream" = type { i32 (...)**, i64, %"class.std::basic_ios" }
%"class.std::basic_ios" = type { %"class.std::ios_base", %"class.std::basic_ostream"*, i8, i8, %"class.std::basic_streambuf"*, %"class.std::ctype"*, %"class.std::num_put"*, %"class.std::num_get"* }
%"class.std::ios_base" = type { i32 (...)**, i64, i64, i32, i32, i32, %"struct.std::ios_base::_Callback_list"*, %"struct.std::ios_base::_Words", [8 x %"struct.std::ios_base::_Words"], i32, %"struct.std::ios_base::_Words"*, %"class.std::locale" }
%"struct.std::ios_base::_Callback_list" = type { %"struct.std::ios_base::_Callback_list"*, void (i32, %"class.std::ios_base"*, i32)*, i32, i32 }
%"struct.std::ios_base::_Words" = type { i8*, i64 }
%"class.std::locale" = type { %"class.std::locale::_Impl"* }
%"class.std::locale::_Impl" = type { i32, %"class.std::locale::facet"**, i64, %"class.std::locale::facet"**, i8** }
%"class.std::locale::facet" = type <{ i32 (...)**, i32, [4 x i8] }>
%"class.std::basic_ostream" = type { i32 (...)**, %"class.std::basic_ios" }
%"class.std::basic_streambuf" = type { i32 (...)**, i8*, i8*, i8*, i8*, i8*, i8*, %"class.std::locale" }
%"class.std::ctype" = type <{ %"class.std::locale::facet.base", [4 x i8], %struct.__locale_struct*, i8, [7 x i8], i32*, i32*, i16*, i8, [256 x i8], [256 x i8], i8, [6 x i8] }>
%"class.std::locale::facet.base" = type <{ i32 (...)**, i32 }>
%struct.__locale_struct = type { [13 x %struct.__locale_data*], i16*, i32*, i32*, [13 x i8*] }
%struct.__locale_data = type opaque
%"class.std::num_put" = type { %"class.std::locale::facet.base", [4 x i8] }
%"class.std::num_get" = type { %"class.std::locale::facet.base", [4 x i8] }

@_ZStL8__ioinit = internal global %"class.std::ios_base::Init" zeroinitializer, align 1
@__dso_handle = external hidden global i8
@_ZSt3cin = external global %"class.std::basic_istream", align 8
@_ZSt4cout = external global %"class.std::basic_ostream", align 8
@llvm.global_ctors = appending global [1 x { i32, void ()*, i8* }] [{ i32, void ()*, i8* } { i32 65535, void ()* @_GLOBAL__sub_I_1255.cpp, i8* null }]

declare void @_ZNSt8ios_base4InitC1Ev(%"class.std::ios_base::Init"* nonnull align 1 dereferenceable(1)) unnamed_addr #0

; Function Attrs: nounwind
declare void @_ZNSt8ios_base4InitD1Ev(%"class.std::ios_base::Init"* nonnull align 1 dereferenceable(1)) unnamed_addr #1

; Function Attrs: nofree nounwind
declare i32 @__cxa_atexit(void (i8*)*, i8*, i8*) local_unnamed_addr #2

; Function Attrs: mustprogress norecurse sspstrong uwtable
define dso_local i32 @main() local_unnamed_addr #3 {
  %1 = alloca [16 x i32], align 16
  %2 = bitcast [16 x i32]* %1 to i8*
  call void @llvm.lifetime.start.p0i8(i64 64, i8* nonnull %2) #8
  %3 = getelementptr inbounds [16 x i32], [16 x i32]* %1, i64 0, i64 0
  br label %4

4:                                                ; preds = %155, %0
  %5 = call nonnull align 8 dereferenceable(16) %"class.std::basic_istream"* @_ZNSirsERi(%"class.std::basic_istream"* nonnull align 8 dereferenceable(16) @_ZSt3cin, i32* nonnull align 4 dereferenceable(4) %3)
  %6 = bitcast %"class.std::basic_istream"* %5 to i8**
  %7 = load i8*, i8** %6, align 8, !tbaa !5
  %8 = getelementptr i8, i8* %7, i64 -24
  %9 = bitcast i8* %8 to i64*
  %10 = load i64, i64* %9, align 8
  %11 = bitcast %"class.std::basic_istream"* %5 to i8*
  %12 = add nsw i64 %10, 32
  %13 = getelementptr inbounds i8, i8* %11, i64 %12
  %14 = bitcast i8* %13 to i32*
  %15 = load i32, i32* %14, align 8, !tbaa !8
  %16 = and i32 %15, 5
  %17 = icmp eq i32 %16, 0
  br i1 %17, label %18, label %46

18:                                               ; preds = %4, %23
  %19 = phi i64 [ %24, %23 ], [ 0, %4 ]
  %20 = phi i32* [ %26, %23 ], [ %3, %4 ]
  %21 = phi i32 [ %25, %23 ], [ 0, %4 ]
  %22 = load i32, i32* %20, align 4, !tbaa !18
  switch i32 %22, label %23 [
    i32 0, label %40
    i32 -1, label %40
  ]

23:                                               ; preds = %18
  %24 = add nuw i64 %19, 1
  %25 = add nuw nsw i32 %21, 1
  %26 = getelementptr inbounds [16 x i32], [16 x i32]* %1, i64 0, i64 %24
  %27 = call nonnull align 8 dereferenceable(16) %"class.std::basic_istream"* @_ZNSirsERi(%"class.std::basic_istream"* nonnull align 8 dereferenceable(16) @_ZSt3cin, i32* nonnull align 4 dereferenceable(4) %26)
  %28 = bitcast %"class.std::basic_istream"* %27 to i8**
  %29 = load i8*, i8** %28, align 8, !tbaa !5
  %30 = getelementptr i8, i8* %29, i64 -24
  %31 = bitcast i8* %30 to i64*
  %32 = load i64, i64* %31, align 8
  %33 = bitcast %"class.std::basic_istream"* %27 to i8*
  %34 = add nsw i64 %32, 32
  %35 = getelementptr inbounds i8, i8* %33, i64 %34
  %36 = bitcast i8* %35 to i32*
  %37 = load i32, i32* %36, align 8, !tbaa !8
  %38 = and i32 %37, 5
  %39 = icmp eq i32 %38, 0
  br i1 %39, label %18, label %42, !llvm.loop !19

40:                                               ; preds = %18, %18
  %41 = trunc i64 %19 to i32
  br label %42

42:                                               ; preds = %23, %40
  %43 = phi i32 [ %41, %40 ], [ %25, %23 ]
  %44 = load i32, i32* %3, align 16, !tbaa !18
  %45 = icmp eq i32 %44, -1
  br i1 %45, label %159, label %49

46:                                               ; preds = %4
  %47 = load i32, i32* %3, align 16, !tbaa !18
  %48 = icmp eq i32 %47, -1
  br i1 %48, label %159, label %127

49:                                               ; preds = %42
  %50 = icmp sgt i32 %43, 1
  br i1 %50, label %51, label %127

51:                                               ; preds = %49
  %52 = add nsw i32 %43, -1
  %53 = zext i32 %52 to i64
  %54 = zext i32 %43 to i64
  br label %59

55:                                               ; preds = %114, %107
  %56 = phi i32 [ %109, %107 ], [ %124, %114 ]
  %57 = add nuw nsw i64 %61, 1
  %58 = icmp eq i64 %65, %53
  br i1 %58, label %127, label %59, !llvm.loop !21

59:                                               ; preds = %55, %51
  %60 = phi i64 [ 0, %51 ], [ %65, %55 ]
  %61 = phi i64 [ 1, %51 ], [ %57, %55 ]
  %62 = phi i32 [ 0, %51 ], [ %56, %55 ]
  %63 = xor i64 %60, -1
  %64 = add nsw i64 %63, %54
  %65 = add nuw nsw i64 %60, 1
  %66 = getelementptr inbounds [16 x i32], [16 x i32]* %1, i64 0, i64 %60
  %67 = load i32, i32* %66, align 4, !tbaa !18
  %68 = shl nsw i32 %67, 1
  %69 = icmp ult i64 %64, 8
  br i1 %69, label %111, label %70

70:                                               ; preds = %59
  %71 = and i64 %64, -8
  %72 = add i64 %61, %71
  %73 = insertelement <4 x i32> <i32 poison, i32 0, i32 0, i32 0>, i32 %62, i32 0
  %74 = insertelement <4 x i32> poison, i32 %68, i32 0
  %75 = shufflevector <4 x i32> %74, <4 x i32> poison, <4 x i32> zeroinitializer
  %76 = insertelement <4 x i32> poison, i32 %68, i32 0
  %77 = shufflevector <4 x i32> %76, <4 x i32> poison, <4 x i32> zeroinitializer
  %78 = insertelement <4 x i32> poison, i32 %67, i32 0
  %79 = shufflevector <4 x i32> %78, <4 x i32> poison, <4 x i32> zeroinitializer
  %80 = insertelement <4 x i32> poison, i32 %67, i32 0
  %81 = shufflevector <4 x i32> %80, <4 x i32> poison, <4 x i32> zeroinitializer
  br label %82

82:                                               ; preds = %82, %70
  %83 = phi i64 [ 0, %70 ], [ %105, %82 ]
  %84 = phi <4 x i32> [ %73, %70 ], [ %103, %82 ]
  %85 = phi <4 x i32> [ zeroinitializer, %70 ], [ %104, %82 ]
  %86 = add i64 %61, %83
  %87 = getelementptr inbounds [16 x i32], [16 x i32]* %1, i64 0, i64 %86
  %88 = bitcast i32* %87 to <4 x i32>*
  %89 = load <4 x i32>, <4 x i32>* %88, align 4, !tbaa !18
  %90 = getelementptr inbounds i32, i32* %87, i64 4
  %91 = bitcast i32* %90 to <4 x i32>*
  %92 = load <4 x i32>, <4 x i32>* %91, align 4, !tbaa !18
  %93 = icmp eq <4 x i32> %89, %75
  %94 = icmp eq <4 x i32> %92, %77
  %95 = shl nsw <4 x i32> %89, <i32 1, i32 1, i32 1, i32 1>
  %96 = shl nsw <4 x i32> %92, <i32 1, i32 1, i32 1, i32 1>
  %97 = icmp eq <4 x i32> %79, %95
  %98 = icmp eq <4 x i32> %81, %96
  %99 = select <4 x i1> %93, <4 x i1> <i1 true, i1 true, i1 true, i1 true>, <4 x i1> %97
  %100 = select <4 x i1> %94, <4 x i1> <i1 true, i1 true, i1 true, i1 true>, <4 x i1> %98
  %101 = zext <4 x i1> %99 to <4 x i32>
  %102 = zext <4 x i1> %100 to <4 x i32>
  %103 = add <4 x i32> %84, %101
  %104 = add <4 x i32> %85, %102
  %105 = add nuw i64 %83, 8
  %106 = icmp eq i64 %105, %71
  br i1 %106, label %107, label %82, !llvm.loop !22

107:                                              ; preds = %82
  %108 = add <4 x i32> %104, %103
  %109 = call i32 @llvm.vector.reduce.add.v4i32(<4 x i32> %108)
  %110 = icmp eq i64 %64, %71
  br i1 %110, label %55, label %111

111:                                              ; preds = %59, %107
  %112 = phi i64 [ %61, %59 ], [ %72, %107 ]
  %113 = phi i32 [ %62, %59 ], [ %109, %107 ]
  br label %114

114:                                              ; preds = %111, %114
  %115 = phi i64 [ %125, %114 ], [ %112, %111 ]
  %116 = phi i32 [ %124, %114 ], [ %113, %111 ]
  %117 = getelementptr inbounds [16 x i32], [16 x i32]* %1, i64 0, i64 %115
  %118 = load i32, i32* %117, align 4, !tbaa !18
  %119 = icmp eq i32 %118, %68
  %120 = shl nsw i32 %118, 1
  %121 = icmp eq i32 %67, %120
  %122 = select i1 %119, i1 true, i1 %121
  %123 = zext i1 %122 to i32
  %124 = add nsw i32 %116, %123
  %125 = add nuw nsw i64 %115, 1
  %126 = icmp eq i64 %125, %54
  br i1 %126, label %55, label %114, !llvm.loop !24

127:                                              ; preds = %55, %46, %49
  %128 = phi i32 [ 0, %49 ], [ 0, %46 ], [ %56, %55 ]
  %129 = call nonnull align 8 dereferenceable(8) %"class.std::basic_ostream"* @_ZNSolsEi(%"class.std::basic_ostream"* nonnull align 8 dereferenceable(8) @_ZSt4cout, i32 %128)
  %130 = bitcast %"class.std::basic_ostream"* %129 to i8**
  %131 = load i8*, i8** %130, align 8, !tbaa !5
  %132 = getelementptr i8, i8* %131, i64 -24
  %133 = bitcast i8* %132 to i64*
  %134 = load i64, i64* %133, align 8
  %135 = bitcast %"class.std::basic_ostream"* %129 to i8*
  %136 = add nsw i64 %134, 240
  %137 = getelementptr inbounds i8, i8* %135, i64 %136
  %138 = bitcast i8* %137 to %"class.std::ctype"**
  %139 = load %"class.std::ctype"*, %"class.std::ctype"** %138, align 8, !tbaa !26
  %140 = icmp eq %"class.std::ctype"* %139, null
  br i1 %140, label %141, label %142

141:                                              ; preds = %127
  call void @_ZSt16__throw_bad_castv() #9
  unreachable

142:                                              ; preds = %127
  %143 = getelementptr inbounds %"class.std::ctype", %"class.std::ctype"* %139, i64 0, i32 8
  %144 = load i8, i8* %143, align 8, !tbaa !29
  %145 = icmp eq i8 %144, 0
  br i1 %145, label %149, label %146

146:                                              ; preds = %142
  %147 = getelementptr inbounds %"class.std::ctype", %"class.std::ctype"* %139, i64 0, i32 9, i64 10
  %148 = load i8, i8* %147, align 1, !tbaa !31
  br label %155

149:                                              ; preds = %142
  call void @_ZNKSt5ctypeIcE13_M_widen_initEv(%"class.std::ctype"* nonnull align 8 dereferenceable(570) %139)
  %150 = bitcast %"class.std::ctype"* %139 to i8 (%"class.std::ctype"*, i8)***
  %151 = load i8 (%"class.std::ctype"*, i8)**, i8 (%"class.std::ctype"*, i8)*** %150, align 8, !tbaa !5
  %152 = getelementptr inbounds i8 (%"class.std::ctype"*, i8)*, i8 (%"class.std::ctype"*, i8)** %151, i64 6
  %153 = load i8 (%"class.std::ctype"*, i8)*, i8 (%"class.std::ctype"*, i8)** %152, align 8
  %154 = call signext i8 %153(%"class.std::ctype"* nonnull align 8 dereferenceable(570) %139, i8 signext 10)
  br label %155

155:                                              ; preds = %146, %149
  %156 = phi i8 [ %148, %146 ], [ %154, %149 ]
  %157 = call nonnull align 8 dereferenceable(8) %"class.std::basic_ostream"* @_ZNSo3putEc(%"class.std::basic_ostream"* nonnull align 8 dereferenceable(8) %129, i8 signext %156)
  %158 = call nonnull align 8 dereferenceable(8) %"class.std::basic_ostream"* @_ZNSo5flushEv(%"class.std::basic_ostream"* nonnull align 8 dereferenceable(8) %157)
  br label %4, !llvm.loop !32

159:                                              ; preds = %46, %42
  call void @llvm.lifetime.end.p0i8(i64 64, i8* nonnull %2) #8
  ret i32 0
}

; Function Attrs: argmemonly mustprogress nofree nosync nounwind willreturn
declare void @llvm.lifetime.start.p0i8(i64 immarg, i8* nocapture) #4

declare nonnull align 8 dereferenceable(16) %"class.std::basic_istream"* @_ZNSirsERi(%"class.std::basic_istream"* nonnull align 8 dereferenceable(16), i32* nonnull align 4 dereferenceable(4)) local_unnamed_addr #0

declare nonnull align 8 dereferenceable(8) %"class.std::basic_ostream"* @_ZNSolsEi(%"class.std::basic_ostream"* nonnull align 8 dereferenceable(8), i32) local_unnamed_addr #0

; Function Attrs: argmemonly mustprogress nofree nosync nounwind willreturn
declare void @llvm.lifetime.end.p0i8(i64 immarg, i8* nocapture) #4

declare nonnull align 8 dereferenceable(8) %"class.std::basic_ostream"* @_ZNSo3putEc(%"class.std::basic_ostream"* nonnull align 8 dereferenceable(8), i8 signext) local_unnamed_addr #0

declare nonnull align 8 dereferenceable(8) %"class.std::basic_ostream"* @_ZNSo5flushEv(%"class.std::basic_ostream"* nonnull align 8 dereferenceable(8)) local_unnamed_addr #0

; Function Attrs: noreturn
declare void @_ZSt16__throw_bad_castv() local_unnamed_addr #5

declare void @_ZNKSt5ctypeIcE13_M_widen_initEv(%"class.std::ctype"* nonnull align 8 dereferenceable(570)) local_unnamed_addr #0

; Function Attrs: sspstrong uwtable
define internal void @_GLOBAL__sub_I_1255.cpp() #6 section ".text.startup" {
  tail call void @_ZNSt8ios_base4InitC1Ev(%"class.std::ios_base::Init"* nonnull align 1 dereferenceable(1) @_ZStL8__ioinit)
  %1 = tail call i32 @__cxa_atexit(void (i8*)* bitcast (void (%"class.std::ios_base::Init"*)* @_ZNSt8ios_base4InitD1Ev to void (i8*)*), i8* getelementptr inbounds (%"class.std::ios_base::Init", %"class.std::ios_base::Init"* @_ZStL8__ioinit, i64 0, i32 0), i8* nonnull @__dso_handle) #8
  ret void
}

; Function Attrs: nofree nosync nounwind readnone willreturn
declare i32 @llvm.vector.reduce.add.v4i32(<4 x i32>) #7


!llvm.module.flags = !{!0, !1, !2, !3}
!llvm.ident = !{!4}

!0 = !{i32 1, !"wchar_size", i32 4}
!1 = !{i32 7, !"PIC Level", i32 2}
!2 = !{i32 7, !"PIE Level", i32 2}
!3 = !{i32 7, !"uwtable", i32 1}
!4 = !{!"clang version 13.0.0"}
!5 = !{!6, !6, i64 0}
!6 = !{!"vtable pointer", !7, i64 0}
!7 = !{!"Simple C++ TBAA"}
!8 = !{!9, !13, i64 32}
!9 = !{!"_ZTSSt8ios_base", !10, i64 8, !10, i64 16, !12, i64 24, !13, i64 28, !13, i64 32, !14, i64 40, !15, i64 48, !11, i64 64, !16, i64 192, !14, i64 200, !17, i64 208}
!10 = !{!"long", !11, i64 0}
!11 = !{!"omnipotent char", !7, i64 0}
!12 = !{!"_ZTSSt13_Ios_Fmtflags", !11, i64 0}
!13 = !{!"_ZTSSt12_Ios_Iostate", !11, i64 0}
!14 = !{!"any pointer", !11, i64 0}
!15 = !{!"_ZTSNSt8ios_base6_WordsE", !14, i64 0, !10, i64 8}
!16 = !{!"int", !11, i64 0}
!17 = !{!"_ZTSSt6locale", !14, i64 0}
!18 = !{!16, !16, i64 0}
!19 = distinct !{!19, !20}
!20 = !{!"llvm.loop.mustprogress"}
!21 = distinct !{!21, !20}
!22 = distinct !{!22, !20, !23}
!23 = !{!"llvm.loop.isvectorized", i32 1}
!24 = distinct !{!24, !20, !25, !23}
!25 = !{!"llvm.loop.unroll.runtime.disable"}
!26 = !{!27, !14, i64 240}
!27 = !{!"_ZTSSt9basic_iosIcSt11char_traitsIcEE", !14, i64 216, !11, i64 224, !28, i64 225, !14, i64 232, !14, i64 240, !14, i64 248, !14, i64 256}
!28 = !{!"bool", !11, i64 0}
!29 = !{!30, !11, i64 56}
!30 = !{!"_ZTSSt5ctypeIcE", !14, i64 16, !28, i64 24, !14, i64 32, !14, i64 40, !14, i64 48, !11, i64 56, !11, i64 57, !11, i64 313, !11, i64 569}
!31 = !{!11, !11, i64 0}
!32 = distinct !{!32, !20}
